target datalayout = "e-m:e-p270:32:32-p271:32:32-p272:64:64-i64:64-i128:128-f80:128-n8:16:32:64-S128"
target triple = "x86_64-unknown-linux-gnu"

%class.btVector3 = type { [4 x float] }
%struct.FilteredCallback = type { %class.btInternalTriangleIndexCallback, ptr, %class.btVector3, %class.btVector3 }
%class.btInternalTriangleIndexCallback = type { ptr }

; Function Attrs: mustprogress nounwind uwtable
define linkonce_odr dso_local noundef nonnull align 4 dereferenceable(4) ptr @_Z5btMaxIfERKT_S2_S2_(ptr noundef nonnull align 4 dereferenceable(4) %a, ptr noundef nonnull align 4 dereferenceable(4) %b) #1 comdat {
entry:
  %a.addr = alloca ptr, align 8
  %b.addr = alloca ptr, align 8
  store ptr %a, ptr %a.addr, align 8
  store ptr %b, ptr %b.addr, align 8
  %0 = load ptr, ptr %a.addr, align 8
  %1 = load float, ptr %0, align 4
  %2 = load ptr, ptr %b.addr, align 8
  %3 = load float, ptr %2, align 4
  %cmp = fcmp ogt float %1, %3
  br i1 %cmp, label %cond.true, label %cond.false

cond.true:                                        ; preds = %entry
  %4 = load ptr, ptr %a.addr, align 8
  br label %cond.end

cond.false:                                       ; preds = %entry
  %5 = load ptr, ptr %b.addr, align 8
  br label %cond.end

cond.end:                                         ; preds = %cond.false, %cond.true
  %cond-lvalue = phi ptr [ %4, %cond.true ], [ %5, %cond.false ]
  ret ptr %cond-lvalue
}

; Function Attrs: mustprogress nounwind uwtable
define linkonce_odr dso_local noundef nonnull align 4 dereferenceable(4) ptr @_Z5btMinIfERKT_S2_S2_(ptr noundef nonnull align 4 dereferenceable(4) %a, ptr noundef nonnull align 4 dereferenceable(4) %b) #1 comdat {
entry:
  %a.addr = alloca ptr, align 8
  %b.addr = alloca ptr, align 8
  store ptr %a, ptr %a.addr, align 8
  store ptr %b, ptr %b.addr, align 8
  %0 = load ptr, ptr %a.addr, align 8
  %1 = load float, ptr %0, align 4
  %2 = load ptr, ptr %b.addr, align 8
  %3 = load float, ptr %2, align 4
  %cmp = fcmp olt float %1, %3
  br i1 %cmp, label %cond.true, label %cond.false

cond.true:                                        ; preds = %entry
  %4 = load ptr, ptr %a.addr, align 8
  br label %cond.end

cond.false:                                       ; preds = %entry
  %5 = load ptr, ptr %b.addr, align 8
  br label %cond.end

cond.end:                                         ; preds = %cond.false, %cond.true
  %cond-lvalue = phi ptr [ %4, %cond.true ], [ %5, %cond.false ]
  ret ptr %cond-lvalue
}

; Function Attrs: mustprogress nounwind uwtable
define linkonce_odr dso_local noundef ptr @_ZNK9btVector3cvPKfEv(ptr noundef nonnull align 4 dereferenceable(16) %this) #1 comdat align 2 {
entry:
  %this.addr = alloca ptr, align 8
  store ptr %this, ptr %this.addr, align 8
  %this1 = load ptr, ptr %this.addr, align 8
  %m_floats = getelementptr inbounds %class.btVector3, ptr %this1, i32 0, i32 0
  %arrayidx = getelementptr inbounds [4 x float], ptr %m_floats, i64 0, i64 0
  ret ptr %arrayidx
}

; Function Attrs: mustprogress uwtable
define linkonce_odr dso_local noundef zeroext i1 @_Z24TestTriangleAgainstAabb2PK9btVector3RS0_S2_(ptr noundef %vertices, ptr noundef nonnull align 4 dereferenceable(16) %aabbMin, ptr noundef nonnull align 4 dereferenceable(16) %aabbMax) #2 comdat {
entry:
  %retval = alloca i1, align 1
  %vertices.addr = alloca ptr, align 8
  %aabbMin.addr = alloca ptr, align 8
  %aabbMax.addr = alloca ptr, align 8
  %p1 = alloca ptr, align 8
  %p2 = alloca ptr, align 8
  %p3 = alloca ptr, align 8
  store ptr %vertices, ptr %vertices.addr, align 8
  store ptr %aabbMin, ptr %aabbMin.addr, align 8
  store ptr %aabbMax, ptr %aabbMax.addr, align 8
  %0 = load ptr, ptr %vertices.addr, align 8
  %arrayidx = getelementptr inbounds %class.btVector3, ptr %0, i64 0
  store ptr %arrayidx, ptr %p1, align 8
  %1 = load ptr, ptr %vertices.addr, align 8
  %arrayidx1 = getelementptr inbounds %class.btVector3, ptr %1, i64 1
  store ptr %arrayidx1, ptr %p2, align 8
  %2 = load ptr, ptr %vertices.addr, align 8
  %arrayidx2 = getelementptr inbounds %class.btVector3, ptr %2, i64 2
  store ptr %arrayidx2, ptr %p3, align 8
  %3 = load ptr, ptr %p1, align 8
  %call = call noundef ptr @_ZNK9btVector3cvPKfEv(ptr noundef nonnull align 4 dereferenceable(16) %3)
  %arrayidx3 = getelementptr inbounds float, ptr %call, i64 0
  %4 = load ptr, ptr %p2, align 8
  %call4 = call noundef ptr @_ZNK9btVector3cvPKfEv(ptr noundef nonnull align 4 dereferenceable(16) %4)
  %arrayidx5 = getelementptr inbounds float, ptr %call4, i64 0
  %call6 = call noundef nonnull align 4 dereferenceable(4) ptr @_Z5btMinIfERKT_S2_S2_(ptr noundef nonnull align 4 dereferenceable(4) %arrayidx3, ptr noundef nonnull align 4 dereferenceable(4) %arrayidx5)
  %5 = load ptr, ptr %p3, align 8
  %call7 = call noundef ptr @_ZNK9btVector3cvPKfEv(ptr noundef nonnull align 4 dereferenceable(16) %5)
  %arrayidx8 = getelementptr inbounds float, ptr %call7, i64 0
  %call9 = call noundef nonnull align 4 dereferenceable(4) ptr @_Z5btMinIfERKT_S2_S2_(ptr noundef nonnull align 4 dereferenceable(4) %call6, ptr noundef nonnull align 4 dereferenceable(4) %arrayidx8)
  %6 = load float, ptr %call9, align 4
  %7 = load ptr, ptr %aabbMax.addr, align 8
  %call10 = call noundef ptr @_ZNK9btVector3cvPKfEv(ptr noundef nonnull align 4 dereferenceable(16) %7)
  %arrayidx11 = getelementptr inbounds float, ptr %call10, i64 0
  %8 = load float, ptr %arrayidx11, align 4
  %cmp = fcmp ogt float %6, %8
  br i1 %cmp, label %if.then, label %if.end

if.then:                                          ; preds = %entry
  store i1 false, ptr %retval, align 1
  br label %return

if.end:                                           ; preds = %entry
  %9 = load ptr, ptr %p1, align 8
  %call12 = call noundef ptr @_ZNK9btVector3cvPKfEv(ptr noundef nonnull align 4 dereferenceable(16) %9)
  %arrayidx13 = getelementptr inbounds float, ptr %call12, i64 0
  %10 = load ptr, ptr %p2, align 8
  %call14 = call noundef ptr @_ZNK9btVector3cvPKfEv(ptr noundef nonnull align 4 dereferenceable(16) %10)
  %arrayidx15 = getelementptr inbounds float, ptr %call14, i64 0
  %call16 = call noundef nonnull align 4 dereferenceable(4) ptr @_Z5btMaxIfERKT_S2_S2_(ptr noundef nonnull align 4 dereferenceable(4) %arrayidx13, ptr noundef nonnull align 4 dereferenceable(4) %arrayidx15)
  %11 = load ptr, ptr %p3, align 8
  %call17 = call noundef ptr @_ZNK9btVector3cvPKfEv(ptr noundef nonnull align 4 dereferenceable(16) %11)
  %arrayidx18 = getelementptr inbounds float, ptr %call17, i64 0
  %call19 = call noundef nonnull align 4 dereferenceable(4) ptr @_Z5btMaxIfERKT_S2_S2_(ptr noundef nonnull align 4 dereferenceable(4) %call16, ptr noundef nonnull align 4 dereferenceable(4) %arrayidx18)
  %12 = load float, ptr %call19, align 4
  %13 = load ptr, ptr %aabbMin.addr, align 8
  %call20 = call noundef ptr @_ZNK9btVector3cvPKfEv(ptr noundef nonnull align 4 dereferenceable(16) %13)
  %arrayidx21 = getelementptr inbounds float, ptr %call20, i64 0
  %14 = load float, ptr %arrayidx21, align 4
  %cmp22 = fcmp olt float %12, %14
  br i1 %cmp22, label %if.then23, label %if.end24

if.then23:                                        ; preds = %if.end
  store i1 false, ptr %retval, align 1
  br label %return

if.end24:                                         ; preds = %if.end
  %15 = load ptr, ptr %p1, align 8
  %call25 = call noundef ptr @_ZNK9btVector3cvPKfEv(ptr noundef nonnull align 4 dereferenceable(16) %15)
  %arrayidx26 = getelementptr inbounds float, ptr %call25, i64 2
  %16 = load ptr, ptr %p2, align 8
  %call27 = call noundef ptr @_ZNK9btVector3cvPKfEv(ptr noundef nonnull align 4 dereferenceable(16) %16)
  %arrayidx28 = getelementptr inbounds float, ptr %call27, i64 2
  %call29 = call noundef nonnull align 4 dereferenceable(4) ptr @_Z5btMinIfERKT_S2_S2_(ptr noundef nonnull align 4 dereferenceable(4) %arrayidx26, ptr noundef nonnull align 4 dereferenceable(4) %arrayidx28)
  %17 = load ptr, ptr %p3, align 8
  %call30 = call noundef ptr @_ZNK9btVector3cvPKfEv(ptr noundef nonnull align 4 dereferenceable(16) %17)
  %arrayidx31 = getelementptr inbounds float, ptr %call30, i64 2
  %call32 = call noundef nonnull align 4 dereferenceable(4) ptr @_Z5btMinIfERKT_S2_S2_(ptr noundef nonnull align 4 dereferenceable(4) %call29, ptr noundef nonnull align 4 dereferenceable(4) %arrayidx31)
  %18 = load float, ptr %call32, align 4
  %19 = load ptr, ptr %aabbMax.addr, align 8
  %call33 = call noundef ptr @_ZNK9btVector3cvPKfEv(ptr noundef nonnull align 4 dereferenceable(16) %19)
  %arrayidx34 = getelementptr inbounds float, ptr %call33, i64 2
  %20 = load float, ptr %arrayidx34, align 4
  %cmp35 = fcmp ogt float %18, %20
  br i1 %cmp35, label %if.then36, label %if.end37

if.then36:                                        ; preds = %if.end24
  store i1 false, ptr %retval, align 1
  br label %return

if.end37:                                         ; preds = %if.end24
  %21 = load ptr, ptr %p1, align 8
  %call38 = call noundef ptr @_ZNK9btVector3cvPKfEv(ptr noundef nonnull align 4 dereferenceable(16) %21)
  %arrayidx39 = getelementptr inbounds float, ptr %call38, i64 2
  %22 = load ptr, ptr %p2, align 8
  %call40 = call noundef ptr @_ZNK9btVector3cvPKfEv(ptr noundef nonnull align 4 dereferenceable(16) %22)
  %arrayidx41 = getelementptr inbounds float, ptr %call40, i64 2
  %call42 = call noundef nonnull align 4 dereferenceable(4) ptr @_Z5btMaxIfERKT_S2_S2_(ptr noundef nonnull align 4 dereferenceable(4) %arrayidx39, ptr noundef nonnull align 4 dereferenceable(4) %arrayidx41)
  %23 = load ptr, ptr %p3, align 8
  %call43 = call noundef ptr @_ZNK9btVector3cvPKfEv(ptr noundef nonnull align 4 dereferenceable(16) %23)
  %arrayidx44 = getelementptr inbounds float, ptr %call43, i64 2
  %call45 = call noundef nonnull align 4 dereferenceable(4) ptr @_Z5btMaxIfERKT_S2_S2_(ptr noundef nonnull align 4 dereferenceable(4) %call42, ptr noundef nonnull align 4 dereferenceable(4) %arrayidx44)
  %24 = load float, ptr %call45, align 4
  %25 = load ptr, ptr %aabbMin.addr, align 8
  %call46 = call noundef ptr @_ZNK9btVector3cvPKfEv(ptr noundef nonnull align 4 dereferenceable(16) %25)
  %arrayidx47 = getelementptr inbounds float, ptr %call46, i64 2
  %26 = load float, ptr %arrayidx47, align 4
  %cmp48 = fcmp olt float %24, %26
  br i1 %cmp48, label %if.then49, label %if.end50

if.then49:                                        ; preds = %if.end37
  store i1 false, ptr %retval, align 1
  br label %return

if.end50:                                         ; preds = %if.end37
  %27 = load ptr, ptr %p1, align 8
  %call51 = call noundef ptr @_ZNK9btVector3cvPKfEv(ptr noundef nonnull align 4 dereferenceable(16) %27)
  %arrayidx52 = getelementptr inbounds float, ptr %call51, i64 1
  %28 = load ptr, ptr %p2, align 8
  %call53 = call noundef ptr @_ZNK9btVector3cvPKfEv(ptr noundef nonnull align 4 dereferenceable(16) %28)
  %arrayidx54 = getelementptr inbounds float, ptr %call53, i64 1
  %call55 = call noundef nonnull align 4 dereferenceable(4) ptr @_Z5btMinIfERKT_S2_S2_(ptr noundef nonnull align 4 dereferenceable(4) %arrayidx52, ptr noundef nonnull align 4 dereferenceable(4) %arrayidx54)
  %29 = load ptr, ptr %p3, align 8
  %call56 = call noundef ptr @_ZNK9btVector3cvPKfEv(ptr noundef nonnull align 4 dereferenceable(16) %29)
  %arrayidx57 = getelementptr inbounds float, ptr %call56, i64 1
  %call58 = call noundef nonnull align 4 dereferenceable(4) ptr @_Z5btMinIfERKT_S2_S2_(ptr noundef nonnull align 4 dereferenceable(4) %call55, ptr noundef nonnull align 4 dereferenceable(4) %arrayidx57)
  %30 = load float, ptr %call58, align 4
  %31 = load ptr, ptr %aabbMax.addr, align 8
  %call59 = call noundef ptr @_ZNK9btVector3cvPKfEv(ptr noundef nonnull align 4 dereferenceable(16) %31)
  %arrayidx60 = getelementptr inbounds float, ptr %call59, i64 1
  %32 = load float, ptr %arrayidx60, align 4
  %cmp61 = fcmp ogt float %30, %32
  br i1 %cmp61, label %if.then62, label %if.end63

if.then62:                                        ; preds = %if.end50
  store i1 false, ptr %retval, align 1
  br label %return

if.end63:                                         ; preds = %if.end50
  %33 = load ptr, ptr %p1, align 8
  %call64 = call noundef ptr @_ZNK9btVector3cvPKfEv(ptr noundef nonnull align 4 dereferenceable(16) %33)
  %arrayidx65 = getelementptr inbounds float, ptr %call64, i64 1
  %34 = load ptr, ptr %p2, align 8
  %call66 = call noundef ptr @_ZNK9btVector3cvPKfEv(ptr noundef nonnull align 4 dereferenceable(16) %34)
  %arrayidx67 = getelementptr inbounds float, ptr %call66, i64 1
  %call68 = call noundef nonnull align 4 dereferenceable(4) ptr @_Z5btMaxIfERKT_S2_S2_(ptr noundef nonnull align 4 dereferenceable(4) %arrayidx65, ptr noundef nonnull align 4 dereferenceable(4) %arrayidx67)
  %35 = load ptr, ptr %p3, align 8
  %call69 = call noundef ptr @_ZNK9btVector3cvPKfEv(ptr noundef nonnull align 4 dereferenceable(16) %35)
  %arrayidx70 = getelementptr inbounds float, ptr %call69, i64 1
  %call71 = call noundef nonnull align 4 dereferenceable(4) ptr @_Z5btMaxIfERKT_S2_S2_(ptr noundef nonnull align 4 dereferenceable(4) %call68, ptr noundef nonnull align 4 dereferenceable(4) %arrayidx70)
  %36 = load float, ptr %call71, align 4
  %37 = load ptr, ptr %aabbMin.addr, align 8
  %call72 = call noundef ptr @_ZNK9btVector3cvPKfEv(ptr noundef nonnull align 4 dereferenceable(16) %37)
  %arrayidx73 = getelementptr inbounds float, ptr %call72, i64 1
  %38 = load float, ptr %arrayidx73, align 4
  %cmp74 = fcmp olt float %36, %38
  br i1 %cmp74, label %if.then75, label %if.end76

if.then75:                                        ; preds = %if.end63
  store i1 false, ptr %retval, align 1
  br label %return

if.end76:                                         ; preds = %if.end63
  store i1 true, ptr %retval, align 1
  br label %return

return:                                           ; preds = %if.end76, %if.then75, %if.then62, %if.then49, %if.then36, %if.then23, %if.then
  %39 = load i1, ptr %retval, align 1
  ret i1 %39
}

; Function Attrs: mustprogress uwtable
define internal void @_ZZNK19btTriangleMeshShape19processAllTrianglesEP18btTriangleCallbackRK9btVector3S4_EN16FilteredCallback28internalProcessTriangleIndexEPS2_ii(ptr noundef nonnull align 8 dereferenceable(48) %this, ptr noundef %triangle, i32 noundef %partId, i32 noundef %triangleIndex) unnamed_addr #2 align 2 {
entry:
  %this.addr = alloca ptr, align 8
  %triangle.addr = alloca ptr, align 8
  %partId.addr = alloca i32, align 4
  %triangleIndex.addr = alloca i32, align 4
  store ptr %this, ptr %this.addr, align 8
  store ptr %triangle, ptr %triangle.addr, align 8
  store i32 %partId, ptr %partId.addr, align 4
  store i32 %triangleIndex, ptr %triangleIndex.addr, align 4
  %this1 = load ptr, ptr %this.addr, align 8
  %0 = load ptr, ptr %triangle.addr, align 8
  %arrayidx = getelementptr inbounds %class.btVector3, ptr %0, i64 0
  %m_aabbMin = getelementptr inbounds %struct.FilteredCallback, ptr %this1, i32 0, i32 2
  %m_aabbMax = getelementptr inbounds %struct.FilteredCallback, ptr %this1, i32 0, i32 3
  %call = call noundef zeroext i1 @_Z24TestTriangleAgainstAabb2PK9btVector3RS0_S2_(ptr noundef %arrayidx, ptr noundef nonnull align 4 dereferenceable(16) %m_aabbMin, ptr noundef nonnull align 4 dereferenceable(16) %m_aabbMax)
  br i1 %call, label %if.then, label %if.end

if.then:                                          ; preds = %entry
  %m_callback = getelementptr inbounds %struct.FilteredCallback, ptr %this1, i32 0, i32 1
  %1 = load ptr, ptr %m_callback, align 8
  %2 = load ptr, ptr %triangle.addr, align 8
  %3 = load i32, ptr %partId.addr, align 4
  %4 = load i32, ptr %triangleIndex.addr, align 4
  %vtable = load ptr, ptr %1, align 8
  %vfn = getelementptr inbounds ptr, ptr %vtable, i64 2
  %5 = load ptr, ptr %vfn, align 8
  call void %5(ptr noundef nonnull align 8 dereferenceable(8) %1, ptr noundef %2, i32 noundef %3, i32 noundef %4)
  br label %if.end

if.end:                                           ; preds = %if.then, %entry
  ret void
}