; Function Attrs: mustprogress uwtable
define internal void @_ZZNK19btTriangleMeshShape19processAllTrianglesEP18btTriangleCallbackRK9btVector3S4_EN16FilteredCallback28internalProcessTriangleIndexEPS2_ii(ptr nocapture noundef nonnull readonly align 8 dereferenceable(48) %this, ptr noundef %triangle, i32 noundef %partId, i32 noundef %triangleIndex) unnamed_addr #6 align 2 {
entry:
  %m_aabbMax = getelementptr inbounds i8, ptr %this, i64 32
  %arrayidx1.i = getelementptr inbounds i8, ptr %triangle, i64 16
  %arrayidx2.i = getelementptr inbounds i8, ptr %triangle, i64 32
  %0 = load float, ptr %triangle, align 4
  %1 = load float, ptr %arrayidx1.i, align 4
  %cmp.i.i = fcmp olt float %0, %1
  %2 = select i1 %cmp.i.i, float %0, float %1
  %3 = load float, ptr %arrayidx2.i, align 4
  %cmp.i22.i = fcmp olt float %2, %3
  %4 = select i1 %cmp.i22.i, float %2, float %3
  %5 = load float, ptr %m_aabbMax, align 8
  %cmp.i = fcmp ogt float %4, %5
  br i1 %cmp.i, label %if.end, label %if.end.i

if.end.i:                                         ; preds = %entry
  %m_aabbMin = getelementptr inbounds i8, ptr %this, i64 16
  %cmp.i24.i = fcmp ogt float %0, %1
  %6 = select i1 %cmp.i24.i, float %0, float %1
  %cond-lvalue.i25.i = select i1 %cmp.i24.i, ptr %triangle, ptr %arrayidx1.i
  %cmp.i26.i = fcmp ogt float %6, %3
  %cond-lvalue.i27.i = select i1 %cmp.i26.i, ptr %cond-lvalue.i25.i, ptr %arrayidx2.i
  %7 = load float, ptr %cond-lvalue.i27.i, align 4
  %8 = load float, ptr %m_aabbMin, align 8
  %cmp22.i = fcmp olt float %7, %8
  br i1 %cmp22.i, label %if.end, label %if.end24.i

if.end24.i:                                       ; preds = %if.end.i
  %arrayidx26.i = getelementptr inbounds i8, ptr %triangle, i64 8
  %arrayidx28.i = getelementptr inbounds i8, ptr %triangle, i64 24
  %9 = load float, ptr %arrayidx26.i, align 4
  %10 = load float, ptr %arrayidx28.i, align 4
  %cmp.i28.i = fcmp olt float %9, %10
  %arrayidx31.i = getelementptr inbounds i8, ptr %triangle, i64 40
  %11 = select i1 %cmp.i28.i, float %9, float %10
  %12 = load float, ptr %arrayidx31.i, align 4
  %cmp.i30.i = fcmp olt float %11, %12
  %13 = select i1 %cmp.i30.i, float %11, float %12
  %arrayidx34.i = getelementptr inbounds i8, ptr %this, i64 40
  %14 = load float, ptr %arrayidx34.i, align 8
  %cmp35.i = fcmp ogt float %13, %14
  br i1 %cmp35.i, label %if.end, label %if.end37.i

if.end37.i:                                       ; preds = %if.end24.i
  %cmp.i32.i = fcmp ogt float %9, %10
  %15 = select i1 %cmp.i32.i, float %9, float %10
  %cond-lvalue.i33.i = select i1 %cmp.i32.i, ptr %arrayidx26.i, ptr %arrayidx28.i
  %cmp.i34.i = fcmp ogt float %15, %12
  %cond-lvalue.i35.i = select i1 %cmp.i34.i, ptr %cond-lvalue.i33.i, ptr %arrayidx31.i
  %16 = load float, ptr %cond-lvalue.i35.i, align 4
  %arrayidx47.i = getelementptr inbounds i8, ptr %this, i64 24
  %17 = load float, ptr %arrayidx47.i, align 8
  %cmp48.i = fcmp olt float %16, %17
  br i1 %cmp48.i, label %if.end, label %if.end50.i

if.end50.i:                                       ; preds = %if.end37.i
  %arrayidx52.i = getelementptr inbounds i8, ptr %triangle, i64 4
  %arrayidx54.i = getelementptr inbounds i8, ptr %triangle, i64 20
  %18 = load float, ptr %arrayidx52.i, align 4
  %19 = load float, ptr %arrayidx54.i, align 4
  %cmp.i36.i = fcmp olt float %18, %19
  %arrayidx57.i = getelementptr inbounds i8, ptr %triangle, i64 36
  %20 = select i1 %cmp.i36.i, float %18, float %19
  %21 = load float, ptr %arrayidx57.i, align 4
  %cmp.i38.i = fcmp olt float %20, %21
  %22 = select i1 %cmp.i38.i, float %20, float %21
  %arrayidx60.i = getelementptr inbounds i8, ptr %this, i64 36
  %23 = load float, ptr %arrayidx60.i, align 4
  %cmp61.i = fcmp ogt float %22, %23
  br i1 %cmp61.i, label %if.end, label %_Z24TestTriangleAgainstAabb2PK9btVector3RS0_S2_.exit

_Z24TestTriangleAgainstAabb2PK9btVector3RS0_S2_.exit: ; preds = %if.end50.i
  %cmp.i40.i = fcmp ogt float %18, %19
  %24 = select i1 %cmp.i40.i, float %18, float %19
  %cond-lvalue.i41.i = select i1 %cmp.i40.i, ptr %arrayidx52.i, ptr %arrayidx54.i
  %cmp.i42.i = fcmp ogt float %24, %21
  %cond-lvalue.i43.i = select i1 %cmp.i42.i, ptr %cond-lvalue.i41.i, ptr %arrayidx57.i
  %25 = load float, ptr %cond-lvalue.i43.i, align 4
  %arrayidx73.i = getelementptr inbounds i8, ptr %this, i64 20
  %26 = load float, ptr %arrayidx73.i, align 4
  %cmp74.i = fcmp uge float %25, %26
  br i1 %cmp74.i, label %if.then, label %if.end

if.then:                                          ; preds = %_Z24TestTriangleAgainstAabb2PK9btVector3RS0_S2_.exit
  %m_callback = getelementptr inbounds i8, ptr %this, i64 8
  %27 = load ptr, ptr %m_callback, align 8
  %vtable = load ptr, ptr %27, align 8
  %vfn = getelementptr inbounds i8, ptr %vtable, i64 16
  %28 = load ptr, ptr %vfn, align 8
  tail call void %28(ptr noundef nonnull align 8 dereferenceable(8) %27, ptr noundef nonnull %triangle, i32 noundef %partId, i32 noundef %triangleIndex)
  br label %if.end

if.end:                                           ; preds = %if.end50.i, %if.end37.i, %if.end24.i, %if.end.i, %entry, %if.then, %_Z24TestTriangleAgainstAabb2PK9btVector3RS0_S2_.exit
  ret void
}